target datalayout = "e-m:e-p270:32:32-p271:32:32-p272:64:64-i64:64-i128:128-f80:128-n8:16:32:64-S128"
target triple = "x86_64-pc-linux-gnu"

; Function Attrs: nounwind uwtable
define internal i32 @read_Bools(ptr noundef %0, ptr noundef %1, i64 noundef %2) #0 {
  %4 = alloca i32, align 4
  %5 = alloca ptr, align 8
  %6 = alloca ptr, align 8
  %7 = alloca i64, align 8
  %8 = alloca ptr, align 8
  %9 = alloca i32, align 4
  %10 = alloca i32, align 4
  %11 = alloca i32, align 4
  %12 = alloca i32, align 4
  store ptr %0, ptr %5, align 8, !tbaa !9
  store ptr %1, ptr %6, align 8, !tbaa !43
  store i64 %2, ptr %7, align 8, !tbaa !45
  call void @llvm.lifetime.start.p0(i64 8, ptr %8) #12
  call void @llvm.lifetime.start.p0(i64 4, ptr %9) #12
  call void @llvm.lifetime.start.p0(i64 4, ptr %10) #12
  store i32 0, ptr %10, align 4, !tbaa !11
  call void @llvm.lifetime.start.p0(i64 4, ptr %11) #12
  store i32 0, ptr %11, align 4, !tbaa !11
  store i32 0, ptr %9, align 4, !tbaa !11
  br label %13

13:                                               ; preds = %43, %3
  %14 = load i32, ptr %9, align 4, !tbaa !11
  %15 = zext i32 %14 to i64
  %16 = load i64, ptr %7, align 8, !tbaa !45
  %17 = icmp ult i64 %15, %16
  br i1 %17, label %18, label %46

18:                                               ; preds = %13
  %19 = load i32, ptr %10, align 4, !tbaa !11
  %20 = icmp eq i32 %19, 0
  br i1 %20, label %21, label %30

21:                                               ; preds = %18
  %22 = load ptr, ptr %5, align 8, !tbaa !9
  %23 = call ptr @header_bytes(ptr noundef %22, i64 noundef 1)
  store ptr %23, ptr %8, align 8, !tbaa !43
  %24 = icmp eq ptr %23, null
  br i1 %24, label %25, label %26

25:                                               ; preds = %21
  store i32 -1, ptr %4, align 4
  store i32 1, ptr %12, align 4
  br label %47

26:                                               ; preds = %21
  %27 = load ptr, ptr %8, align 8, !tbaa !43
  %28 = load i8, ptr %27, align 1, !tbaa !44
  %29 = zext i8 %28 to i32
  store i32 %29, ptr %11, align 4, !tbaa !11
  store i32 128, ptr %10, align 4, !tbaa !11
  br label %30

30:                                               ; preds = %26, %18
  %31 = load i32, ptr %11, align 4, !tbaa !11
  %32 = load i32, ptr %10, align 4, !tbaa !11
  %33 = and i32 %31, %32
  %34 = icmp ne i32 %33, 0
  %35 = select i1 %34, i32 1, i32 0
  %36 = trunc i32 %35 to i8
  %37 = load ptr, ptr %6, align 8, !tbaa !43
  %38 = load i32, ptr %9, align 4, !tbaa !11
  %39 = zext i32 %38 to i64
  %40 = getelementptr inbounds nuw i8, ptr %37, i64 %39
  store i8 %36, ptr %40, align 1, !tbaa !44
  %41 = load i32, ptr %10, align 4, !tbaa !11
  %42 = lshr i32 %41, 1
  store i32 %42, ptr %10, align 4, !tbaa !11
  br label %43

43:                                               ; preds = %30
  %44 = load i32, ptr %9, align 4, !tbaa !11
  %45 = add i32 %44, 1
  store i32 %45, ptr %9, align 4, !tbaa !11
  br label %13, !llvm.loop !282

46:                                               ; preds = %13
  store i32 0, ptr %4, align 4
  store i32 1, ptr %12, align 4
  br label %47

47:                                               ; preds = %46, %25
  call void @llvm.lifetime.end.p0(i64 4, ptr %11) #12
  call void @llvm.lifetime.end.p0(i64 4, ptr %10) #12
  call void @llvm.lifetime.end.p0(i64 4, ptr %9) #12
  call void @llvm.lifetime.end.p0(i64 8, ptr %8) #12
  %48 = load i32, ptr %4, align 4
  ret i32 %48
}