; Function Attrs: nounwind uwtable
define internal fastcc range(i32 -1, 1) i32 @read_Bools(ptr noundef %0, ptr noundef writeonly captures(none) %1, i64 noundef %2) unnamed_addr #0 {
  %.not22 = icmp eq i64 %2, 0
  br i1 %.not22, label %._crit_edge, label %.lr.ph

.lr.ph:                                           ; preds = %3, %12
  %4 = phi i64 [ %18, %12 ], [ 0, %3 ]
  %.019 = phi i32 [ %.1, %12 ], [ 0, %3 ]
  %.01118 = phi i32 [ %16, %12 ], [ 0, %3 ]
  %.01317 = phi i32 [ %17, %12 ], [ 0, %3 ]
  %5 = icmp eq i32 %.01118, 0
  br i1 %5, label %6, label %12

6:                                                ; preds = %.lr.ph
  %7 = tail call fastcc ptr @header_bytes(ptr noundef %0, i64 noundef 1)
  %8 = icmp eq ptr %7, null
  br i1 %8, label %._crit_edge, label %9

9:                                                ; preds = %6
  %10 = load i8, ptr %7, align 1, !tbaa !37
  %11 = zext i8 %10 to i32
  br label %12

12:                                               ; preds = %9, %.lr.ph
  %.112 = phi i32 [ 128, %9 ], [ %.01118, %.lr.ph ]
  %.1 = phi i32 [ %11, %9 ], [ %.019, %.lr.ph ]
  %13 = and i32 %.1, %.112
  %.not = icmp ne i32 %13, 0
  %14 = zext i1 %.not to i8
  %15 = getelementptr inbounds nuw i8, ptr %1, i64 %4
  store i8 %14, ptr %15, align 1, !tbaa !37
  %16 = lshr i32 %.112, 1
  %17 = add i32 %.01317, 1
  %18 = zext i32 %17 to i64
  %19 = icmp ugt i64 %2, %18
  br i1 %19, label %.lr.ph, label %._crit_edge, !llvm.loop !269

._crit_edge:                                      ; preds = %6, %12, %3
  %.014 = phi i32 [ 0, %3 ], [ 0, %12 ], [ -1, %6 ]
  ret i32 %.014
}